(lp1
S'http://www.cbc.ca/news/canada/edmonton/omar-khadr-granted-bail-but-federal-government-to-appeal-1.3046775'
p2
aS'http://www.cbc.ca/news/canada/wilf-demarco-ww-ii-pilot-who-bombed-hitler-s-mountain-retreat-to-be-honoured-in-austria-1.3048425'
p3
aS'http://www.cbc.ca/news/world/sabeen-mahmud-pakistani-human-rights-activist-shot-dead-in-karachi-1.3048557'
p4
aS'http://www.cbc.ca/news/arts/angelina-jolie-criticizes-un-security-council-on-syria-s-refugee-crisis-1.3047129'
p5
aS'http://www.cbc.ca/news/world/migrants-to-europe-14-people-struck-killed-by-train-in-macedonia-1.3046983'
p6
aS'http://www.cbc.ca/news/world/photos/armenian-genocide-debate-rages-ahead-of-100th-anniversary-1.3045613'
p7
aS'http://www.cbc.ca/news/canada/canadians-at-gallipoli-royal-newfoundland-regiment-honoured-1.3046197'
p8
aS'http://www.cbc.ca/news/canada/montreal/quebec-teen-accused-of-terror-had-potential-bomb-making-materials-at-home-1.3047086'
p9
aS'http://www.cbc.ca/news/canada/manitoba/pm-stephen-harper-talks-child-protection-terrorism-in-winnipeg-speech-1.3048636'
p10
aS'http://www.cbc.ca/news/canada/british-columbia/atom-egoyan-calls-armenian-genocide-an-open-wound-1.3047365'
p11
a.